; Function Attrs: mustprogress uwtable
define dso_local void @_ZNK5vcpkg15MetadataMessage9to_stringERNS_15LocalizedStringE(ptr noundef nonnull readonly align 8 captures(none) dereferenceable(16) %0, ptr noundef nonnull align 8 dereferenceable(32) %1) local_unnamed_addr #4 align 2 personality ptr @__gxx_personality_v0 {
  %3 = alloca %"struct.vcpkg::LocalizedString", align 8
  %4 = alloca %"struct.vcpkg::LineInfo", align 8
  %5 = load i32, ptr %0, align 8, !tbaa !19
  switch i32 %5, label %37 [
    i32 1, label %6
    i32 2, label %9
    i32 3, label %14
  ]

6:                                                ; preds = %2
  %7 = getelementptr inbounds nuw i8, ptr %0, i64 8
  %8 = load ptr, ptr %7, align 8, !tbaa !22
  %.sroa.0.0.copyload = load i64, ptr %8, align 8, !tbaa !15
  tail call void @_ZN5vcpkg3msg9format_toIJEJEEEvRNS_15LocalizedStringENS0_8MessageTIJDpT_EEEDpNS0_6TagArgINS_8identityIS5_E4typeET0_EE(ptr noundef nonnull align 8 dereferenceable(32) %1, i64 %.sroa.0.0.copyload)
  br label %39

9:                                                ; preds = %2
  %10 = getelementptr inbounds nuw i8, ptr %0, i64 8
  %11 = load ptr, ptr %10, align 8, !tbaa !22
  %12 = tail call i64 @strlen(ptr noundef nonnull dereferenceable(1) %11) #29
  %13 = tail call noundef nonnull align 8 dereferenceable(32) ptr @_ZNR5vcpkg15LocalizedString10append_rawENS_10StringViewE(ptr noundef nonnull align 8 dereferenceable(32) %1, ptr nonnull %11, i64 %12)
  br label %39

14:                                               ; preds = %2
  call void @llvm.lifetime.start.p0(i64 32, ptr nonnull %3) #27
  %15 = getelementptr inbounds nuw i8, ptr %0, i64 8
  %16 = load ptr, ptr %15, align 8, !tbaa !22
  call void %16(ptr dead_on_unwind nonnull writable sret(%"struct.vcpkg::LocalizedString") align 8 %3)
  %17 = invoke noundef nonnull align 8 dereferenceable(32) ptr @_ZNR5vcpkg15LocalizedString6appendERKS0_(ptr noundef nonnull align 8 dereferenceable(32) %1, ptr noundef nonnull align 8 dereferenceable(32) %3)
          to label %18 unwind label %27

18:                                               ; preds = %14
  %19 = load ptr, ptr %3, align 8, !tbaa !27
  %20 = getelementptr inbounds nuw i8, ptr %3, i64 16
  %21 = icmp eq ptr %19, %20
  br i1 %21, label %_ZNKSt7__cxx1112basic_stringIcSt11char_traitsIcESaIcEE11_M_is_localEv.exit.thread.i.i.i, label %_ZNKSt7__cxx1112basic_stringIcSt11char_traitsIcESaIcEE11_M_is_localEv.exit.i.i.i

_ZNKSt7__cxx1112basic_stringIcSt11char_traitsIcESaIcEE11_M_is_localEv.exit.thread.i.i.i: ; preds = %18
  %22 = getelementptr inbounds nuw i8, ptr %3, i64 8
  %23 = load i64, ptr %22, align 8, !tbaa !30
  %24 = icmp ult i64 %23, 16
  call void @llvm.assume(i1 %24)
  br label %_ZN5vcpkg15LocalizedStringD2Ev.exit

_ZNKSt7__cxx1112basic_stringIcSt11char_traitsIcESaIcEE11_M_is_localEv.exit.i.i.i: ; preds = %18
  %25 = load i64, ptr %20, align 8, !tbaa !22
  %26 = add i64 %25, 1
  call void @_ZdlPvm(ptr noundef %19, i64 noundef %26) #31
  br label %_ZN5vcpkg15LocalizedStringD2Ev.exit

_ZN5vcpkg15LocalizedStringD2Ev.exit:              ; preds = %_ZNKSt7__cxx1112basic_stringIcSt11char_traitsIcESaIcEE11_M_is_localEv.exit.thread.i.i.i, %_ZNKSt7__cxx1112basic_stringIcSt11char_traitsIcESaIcEE11_M_is_localEv.exit.i.i.i
  call void @llvm.lifetime.end.p0(i64 32, ptr nonnull %3) #27
  br label %39

27:                                               ; preds = %14
  %28 = landingpad { ptr, i32 }
          cleanup
  %29 = load ptr, ptr %3, align 8, !tbaa !27
  %30 = getelementptr inbounds nuw i8, ptr %3, i64 16
  %31 = icmp eq ptr %29, %30
  br i1 %31, label %_ZNKSt7__cxx1112basic_stringIcSt11char_traitsIcESaIcEE11_M_is_localEv.exit.thread.i.i.i6, label %_ZNKSt7__cxx1112basic_stringIcSt11char_traitsIcESaIcEE11_M_is_localEv.exit.i.i.i5

_ZNKSt7__cxx1112basic_stringIcSt11char_traitsIcESaIcEE11_M_is_localEv.exit.thread.i.i.i6: ; preds = %27
  %32 = getelementptr inbounds nuw i8, ptr %3, i64 8
  %33 = load i64, ptr %32, align 8, !tbaa !30
  %34 = icmp ult i64 %33, 16
  call void @llvm.assume(i1 %34)
  br label %_ZN5vcpkg15LocalizedStringD2Ev.exit7

_ZNKSt7__cxx1112basic_stringIcSt11char_traitsIcESaIcEE11_M_is_localEv.exit.i.i.i5: ; preds = %27
  %35 = load i64, ptr %30, align 8, !tbaa !22
  %36 = add i64 %35, 1
  call void @_ZdlPvm(ptr noundef %29, i64 noundef %36) #31
  br label %_ZN5vcpkg15LocalizedStringD2Ev.exit7

_ZN5vcpkg15LocalizedStringD2Ev.exit7:             ; preds = %_ZNKSt7__cxx1112basic_stringIcSt11char_traitsIcESaIcEE11_M_is_localEv.exit.thread.i.i.i6, %_ZNKSt7__cxx1112basic_stringIcSt11char_traitsIcESaIcEE11_M_is_localEv.exit.i.i.i5
  call void @llvm.lifetime.end.p0(i64 32, ptr nonnull %3) #27
  resume { ptr, i32 } %28

37:                                               ; preds = %2
  call void @llvm.lifetime.start.p0(i64 16, ptr nonnull %4) #27
  store i32 225, ptr %4, align 8, !tbaa !23
  %38 = getelementptr inbounds nuw i8, ptr %4, i64 8
  store ptr @.str, ptr %38, align 8, !tbaa !26
  call void @_ZN5vcpkg6Checks11unreachableERKNS_8LineInfoE(ptr noundef nonnull align 8 dereferenceable(16) %4) #30
  unreachable

39:                                               ; preds = %_ZN5vcpkg15LocalizedStringD2Ev.exit, %9, %6
  ret void
}